	.file	"checker.c"
	.text
	.section	.rodata
.LC0:
	.string	"%d\n"
.LC1:
	.string	"Internal error! Exiting"
.LC2:
	.string	"%d"
	.text
	.globl	read_vect
	.type	read_vect, @function
read_vect:
.LFB6:
	.cfi_startproc
	endbr64
	pushq	%rbp
	.cfi_def_cfa_offset 16
	.cfi_offset 6, -16
	movq	%rsp, %rbp
	.cfi_def_cfa_register 6
	subq	$32, %rsp
	movq	%rdi, -24(%rbp)
	movq	%fs:40, %rax
	movq	%rax, -8(%rbp)
	xorl	%eax, %eax
	leaq	-16(%rbp), %rax
	movq	%rax, %rsi
	leaq	.LC0(%rip), %rdi
	movl	$0, %eax
	call	__isoc99_scanf@PLT
	movl	-16(%rbp), %eax
	cltq
	salq	$2, %rax
	movq	%rax, %rdi
	call	malloc@PLT
	movq	%rax, %rdx
	movq	-24(%rbp), %rax
	movq	%rdx, (%rax)
	movq	-24(%rbp), %rax
	movq	(%rax), %rax
	testq	%rax, %rax
	jne	.L2
	movq	stderr(%rip), %rax
	movq	%rax, %rcx
	movl	$23, %edx
	movl	$1, %esi
	leaq	.LC1(%rip), %rdi
	call	fwrite@PLT
	movl	$1, %edi
	call	exit@PLT
.L2:
	movl	$0, -12(%rbp)
	jmp	.L3
.L4:
	movq	-24(%rbp), %rax
	movq	(%rax), %rax
	movl	-12(%rbp), %edx
	movslq	%edx, %rdx
	salq	$2, %rdx
	addq	%rdx, %rax
	movq	%rax, %rsi
	leaq	.LC2(%rip), %rdi
	movl	$0, %eax
	call	__isoc99_scanf@PLT
	addl	$1, -12(%rbp)
.L3:
	movl	-16(%rbp), %eax
	cmpl	%eax, -12(%rbp)
	jl	.L4
	movl	-16(%rbp), %eax
	movq	-8(%rbp), %rcx
	xorq	%fs:40, %rcx
	je	.L6
	call	__stack_chk_fail@PLT
.L6:
	leave
	.cfi_def_cfa 7, 8
	ret
	.cfi_endproc
.LFE6:
	.size	read_vect, .-read_vect
	.section	.rodata
.LC3:
	.string	"%d "
	.text
	.globl	main
	.type	main, @function
main:
.LFB7:
	.cfi_startproc
	endbr64
	pushq	%rbp
	.cfi_def_cfa_offset 16
	.cfi_offset 6, -16
	movq	%rsp, %rbp
	.cfi_def_cfa_register 6
	subq	$48, %rsp
	movq	%fs:40, %rax
	movq	%rax, -8(%rbp)
	xorl	%eax, %eax
	leaq	-32(%rbp), %rax
	movq	%rax, %rdi
	call	read_vect
	movl	%eax, -44(%rbp)
	leaq	-24(%rbp), %rax
	movq	%rax, %rdi
	call	read_vect
	movl	%eax, -40(%rbp)
	movl	-44(%rbp), %edx
	movl	-40(%rbp), %eax
	addl	%edx, %eax
	movl	%eax, -36(%rbp)
	movl	-36(%rbp), %eax
	cltq
	salq	$2, %rax
	movq	%rax, %rdi
	call	malloc@PLT
	movq	%rax, -16(%rbp)
	movq	-24(%rbp), %rdx
	movq	-32(%rbp), %rax
	movq	-16(%rbp), %rdi
	movl	-40(%rbp), %ecx
	movl	-44(%rbp), %esi
	movq	%rdi, %r8
	movq	%rax, %rdi
	call	intertwine@PLT
	movl	$0, -48(%rbp)
	jmp	.L8
.L9:
	movl	-48(%rbp), %eax
	cltq
	leaq	0(,%rax,4), %rdx
	movq	-16(%rbp), %rax
	addq	%rdx, %rax
	movl	(%rax), %eax
	movl	%eax, %esi
	leaq	.LC3(%rip), %rdi
	movl	$0, %eax
	call	printf@PLT
	addl	$1, -48(%rbp)
.L8:
	movl	-48(%rbp), %eax
	cmpl	-36(%rbp), %eax
	jl	.L9
	movl	$10, %edi
	call	putchar@PLT
	movq	-32(%rbp), %rax
	movq	%rax, %rdi
	call	free@PLT
	movq	-24(%rbp), %rax
	movq	%rax, %rdi
	call	free@PLT
	movq	-16(%rbp), %rax
	movq	%rax, %rdi
	call	free@PLT
	movl	$0, %eax
	movq	-8(%rbp), %rcx
	xorq	%fs:40, %rcx
	je	.L11
	call	__stack_chk_fail@PLT
.L11:
	leave
	.cfi_def_cfa 7, 8
	ret
	.cfi_endproc
.LFE7:
	.size	main, .-main
	.ident	"GCC: (Ubuntu 9.3.0-17ubuntu1~20.04) 9.3.0"
	.section	.note.GNU-stack,"",@progbits
	.section	.note.gnu.property,"a"
	.align 8
	.long	 1f - 0f
	.long	 4f - 1f
	.long	 5
0:
	.string	 "GNU"
1:
	.align 8
	.long	 0xc0000002
	.long	 3f - 2f
2:
	.long	 0x3
3:
	.align 8
4:
